target datalayout = "e-m:e-p270:32:32-p271:32:32-p272:64:64-i64:64-i128:128-f80:128-n8:16:32:64-S128"
target triple = "x86_64-pc-linux-gnu"

%struct.rb_data_type_struct = type { ptr, %struct.anon, ptr, ptr, i64 }
%struct.anon = type { ptr, ptr, ptr, ptr, [1 x ptr] }
%struct.RBasic = type { i64, i64 }
%struct.asn1_string_st = type { i32, i32, ptr, i64 }
%struct.RString = type { %struct.RBasic, i64, %union.anon.0 }
%union.anon.0 = type { %struct.anon.1 }
%struct.anon.1 = type { ptr, %union.anon.2 }
%union.anon.2 = type { i64 }
%struct.anon.3 = type { [1 x i8] }

@eTimestampError = internal global i64 0, align 8
@rb_eRuntimeError = external global i64, align 8
@.str.55 = private unnamed_addr constant [27 x i8] c"Error when encoding to DER\00", align 1
@ossl_ts_req_type = internal constant %struct.rb_data_type_struct { ptr @.str.64, %struct.anon { ptr null, ptr @ossl_ts_req_free, ptr null, ptr null, [1 x ptr] zeroinitializer }, ptr null, ptr null, i64 33 }, align 8
@.str.57 = private unnamed_addr constant [27 x i8] c"TS_REQ wasn't initialized.\00", align 1
@.str.76 = private unnamed_addr constant [34 x i8] c"Message imprint missing algorithm\00", align 1
@.str.77 = private unnamed_addr constant [39 x i8] c"Message imprint missing hashed message\00", align 1

; Function Attrs: inlinehint nounwind sspstrong willreturn memory(read) uwtable
define internal i64 @RB_FL_TEST_RAW(i64 noundef %0, i64 noundef %1) #2 {
  %3 = alloca i64, align 8
  %4 = alloca i64, align 8
  store i64 %0, ptr %3, align 8, !tbaa !6
  store i64 %1, ptr %4, align 8, !tbaa !6
  %5 = load i64, ptr %3, align 8, !tbaa !6
  %6 = inttoptr i64 %5 to ptr
  %7 = getelementptr inbounds nuw %struct.RBasic, ptr %6, i32 0, i32 0
  %8 = load i64, ptr %7, align 8, !tbaa !80
  %9 = load i64, ptr %4, align 8, !tbaa !6
  %10 = and i64 %8, %9
  ret i64 %10
}

; Function Attrs: inlinehint nounwind sspstrong willreturn memory(read) uwtable
define internal i64 @RSTRING_LEN(i64 noundef %0) #2 {
  %2 = alloca i64, align 8
  store i64 %0, ptr %2, align 8, !tbaa !6
  %3 = load i64, ptr %2, align 8, !tbaa !6
  %4 = inttoptr i64 %3 to ptr
  %5 = getelementptr inbounds nuw %struct.RString, ptr %4, i32 0, i32 1
  %6 = load i64, ptr %5, align 8, !tbaa !78
  ret i64 %6
}

; Function Attrs: inlinehint nounwind sspstrong willreturn memory(read) uwtable
define internal zeroext i1 @RB_FL_ANY_RAW(i64 noundef %0, i64 noundef %1) #2 {
  %3 = alloca i64, align 8
  %4 = alloca i64, align 8
  store i64 %0, ptr %3, align 8, !tbaa !6
  store i64 %1, ptr %4, align 8, !tbaa !6
  %5 = load i64, ptr %3, align 8, !tbaa !6
  %6 = load i64, ptr %4, align 8, !tbaa !6
  %7 = call i64 @RB_FL_TEST_RAW(i64 noundef %5, i64 noundef %6) #15
  %8 = icmp ne i64 %7, 0
  ret i1 %8
}

; Function Attrs: inlinehint nounwind sspstrong willreturn memory(read, argmem: readwrite) uwtable
define internal void @rbimpl_rstring_getmem(ptr dead_on_unwind noalias writable sret(%struct.RString) align 8 %0, i64 noundef %1) #8 {
  %3 = alloca i64, align 8
  store i64 %1, ptr %3, align 8, !tbaa !6
  %4 = load i64, ptr %3, align 8, !tbaa !6
  %5 = call zeroext i1 @RB_FL_ANY_RAW(i64 noundef %4, i64 noundef 8192) #15
  br i1 %5, label %6, label %9

6:                                                ; preds = %2
  %7 = load i64, ptr %3, align 8, !tbaa !6
  %8 = inttoptr i64 %7 to ptr
  call void @llvm.memcpy.p0.p0.i64(ptr align 8 %0, ptr align 8 %8, i64 40, i1 false), !tbaa.struct !77
  br label %20

9:                                                ; preds = %2
  %10 = load i64, ptr %3, align 8, !tbaa !6
  %11 = call i64 @RSTRING_LEN(i64 noundef %10) #15
  %12 = getelementptr inbounds nuw %struct.RString, ptr %0, i32 0, i32 1
  store i64 %11, ptr %12, align 8, !tbaa !78
  %13 = load i64, ptr %3, align 8, !tbaa !6
  %14 = inttoptr i64 %13 to ptr
  %15 = getelementptr inbounds nuw %struct.RString, ptr %14, i32 0, i32 2
  %16 = getelementptr inbounds nuw %struct.anon.3, ptr %15, i32 0, i32 0
  %17 = getelementptr inbounds [1 x i8], ptr %16, i64 0, i64 0
  %18 = getelementptr inbounds nuw %struct.RString, ptr %0, i32 0, i32 2
  %19 = getelementptr inbounds nuw %struct.anon.1, ptr %18, i32 0, i32 0
  store ptr %17, ptr %19, align 8, !tbaa !37
  br label %20

20:                                               ; preds = %9, %6
  ret void
}

; Function Attrs: inlinehint nounwind sspstrong uwtable
define internal ptr @RSTRING_PTR(i64 noundef %0) #3 {
  %2 = alloca i64, align 8
  %3 = alloca ptr, align 8
  %4 = alloca %struct.RString, align 8
  store i64 %0, ptr %2, align 8, !tbaa !6
  call void @llvm.lifetime.start.p0(i64 8, ptr %3) #16
  %5 = load i64, ptr %2, align 8, !tbaa !6
  call void @rbimpl_rstring_getmem(ptr dead_on_unwind writable sret(%struct.RString) align 8 %4, i64 noundef %5) #20
  %6 = getelementptr inbounds nuw %struct.RString, ptr %4, i32 0, i32 2
  %7 = getelementptr inbounds nuw %struct.anon.1, ptr %6, i32 0, i32 0
  %8 = load ptr, ptr %7, align 8, !tbaa !37
  store ptr %8, ptr %3, align 8, !tbaa !10
  %9 = load ptr, ptr %3, align 8, !tbaa !10
  call void @llvm.lifetime.end.p0(i64 8, ptr %3) #16
  ret ptr %9
}

; Function Attrs: nounwind sspstrong uwtable
define internal i64 @asn1_to_der(ptr noundef %0, ptr noundef %1) #0 {
  %3 = alloca ptr, align 8
  %4 = alloca ptr, align 8
  %5 = alloca i64, align 8
  %6 = alloca i32, align 4
  %7 = alloca ptr, align 8
  store ptr %0, ptr %3, align 8, !tbaa !75
  store ptr %1, ptr %4, align 8, !tbaa !75
  call void @llvm.lifetime.start.p0(i64 8, ptr %5) #16
  call void @llvm.lifetime.start.p0(i64 4, ptr %6) #16
  call void @llvm.lifetime.start.p0(i64 8, ptr %7) #16
  %8 = load ptr, ptr %4, align 8, !tbaa !75
  %9 = load ptr, ptr %3, align 8, !tbaa !75
  %10 = call i32 %8(ptr noundef %9, ptr noundef null)
  store i32 %10, ptr %6, align 4, !tbaa !29
  %11 = icmp sle i32 %10, 0
  br i1 %11, label %12, label %14

12:                                               ; preds = %2
  %13 = load i64, ptr @eTimestampError, align 8, !tbaa !6
  call void (i64, ptr, ...) @ossl_raise(i64 noundef %13, ptr noundef @.str.55) #17
  unreachable

14:                                               ; preds = %2
  %15 = load i32, ptr %6, align 4, !tbaa !29
  %16 = call i1 @llvm.is.constant.i32(i32 %15)
  %17 = select i1 %16, ptr @rb_str_new_static, ptr @rb_str_new
  %18 = load i32, ptr %6, align 4, !tbaa !29
  %19 = sext i32 %18 to i64
  %20 = call i64 %17(ptr noundef null, i64 noundef %19)
  store i64 %20, ptr %5, align 8, !tbaa !6
  %21 = load i64, ptr %5, align 8, !tbaa !6
  %22 = call ptr @RSTRING_PTR(i64 noundef %21)
  store ptr %22, ptr %7, align 8, !tbaa !10
  %23 = load ptr, ptr %4, align 8, !tbaa !75
  %24 = load ptr, ptr %3, align 8, !tbaa !75
  %25 = call i32 %23(ptr noundef %24, ptr noundef %7)
  %26 = icmp sle i32 %25, 0
  br i1 %26, label %27, label %29

27:                                               ; preds = %14
  %28 = load i64, ptr @eTimestampError, align 8, !tbaa !6
  call void (i64, ptr, ...) @ossl_raise(i64 noundef %28, ptr noundef @.str.55) #17
  unreachable

29:                                               ; preds = %14
  %30 = load i64, ptr %5, align 8, !tbaa !6
  %31 = load ptr, ptr %7, align 8, !tbaa !10
  %32 = load i64, ptr %5, align 8, !tbaa !6
  %33 = call ptr @RSTRING_PTR(i64 noundef %32)
  %34 = ptrtoint ptr %31 to i64
  %35 = ptrtoint ptr %33 to i64
  %36 = sub i64 %34, %35
  call void @rb_str_set_len(i64 noundef %30, i64 noundef %36)
  %37 = load i64, ptr %5, align 8, !tbaa !6
  call void @llvm.lifetime.end.p0(i64 8, ptr %7) #16
  call void @llvm.lifetime.end.p0(i64 4, ptr %6) #16
  call void @llvm.lifetime.end.p0(i64 8, ptr %5) #16
  ret i64 %37
}

; Function Attrs: nounwind sspstrong uwtable
define internal i64 @ossl_ts_req_to_der(i64 noundef %0) #0 {
  %2 = alloca i64, align 8
  %3 = alloca ptr, align 8
  %4 = alloca ptr, align 8
  %5 = alloca ptr, align 8
  %6 = alloca ptr, align 8
  %7 = alloca ptr, align 8
  store i64 %0, ptr %2, align 8, !tbaa !6
  call void @llvm.lifetime.start.p0(i64 8, ptr %3) #16
  call void @llvm.lifetime.start.p0(i64 8, ptr %4) #16
  call void @llvm.lifetime.start.p0(i64 8, ptr %5) #16
  call void @llvm.lifetime.start.p0(i64 8, ptr %6) #16
  call void @llvm.lifetime.start.p0(i64 8, ptr %7) #16
  br label %8

8:                                                ; preds = %1
  %9 = load i64, ptr %2, align 8, !tbaa !6
  %10 = call ptr @rb_check_typeddata(i64 noundef %9, ptr noundef @ossl_ts_req_type)
  store ptr %10, ptr %3, align 8, !tbaa !51
  %11 = load ptr, ptr %3, align 8, !tbaa !51
  %12 = icmp ne ptr %11, null
  br i1 %12, label %15, label %13

13:                                               ; preds = %8
  %14 = load i64, ptr @rb_eRuntimeError, align 8, !tbaa !6
  call void (i64, ptr, ...) @ossl_raise(i64 noundef %14, ptr noundef @.str.57) #17
  unreachable

15:                                               ; preds = %8
  br label %16

16:                                               ; preds = %15
  br label %17

17:                                               ; preds = %16
  %18 = load ptr, ptr %3, align 8, !tbaa !51
  %19 = call ptr @TS_REQ_get_msg_imprint(ptr noundef %18)
  store ptr %19, ptr %4, align 8, !tbaa !59
  %20 = load ptr, ptr %4, align 8, !tbaa !59
  %21 = call ptr @TS_MSG_IMPRINT_get_algo(ptr noundef %20)
  store ptr %21, ptr %5, align 8, !tbaa !61
  %22 = load ptr, ptr %5, align 8, !tbaa !61
  call void @X509_ALGOR_get0(ptr noundef %6, ptr noundef null, ptr noundef null, ptr noundef %22)
  %23 = load ptr, ptr %6, align 8, !tbaa !63
  %24 = call i32 @OBJ_obj2nid(ptr noundef %23)
  %25 = icmp eq i32 %24, 0
  br i1 %25, label %26, label %28

26:                                               ; preds = %17
  %27 = load i64, ptr @eTimestampError, align 8, !tbaa !6
  call void (i64, ptr, ...) @ossl_raise(i64 noundef %27, ptr noundef @.str.76) #17
  unreachable

28:                                               ; preds = %17
  %29 = load ptr, ptr %4, align 8, !tbaa !59
  %30 = call ptr @TS_MSG_IMPRINT_get_msg(ptr noundef %29)
  store ptr %30, ptr %7, align 8, !tbaa !25
  %31 = load ptr, ptr %7, align 8, !tbaa !25
  %32 = getelementptr inbounds nuw %struct.asn1_string_st, ptr %31, i32 0, i32 0
  %33 = load i32, ptr %32, align 8, !tbaa !65
  %34 = icmp ne i32 %33, 0
  br i1 %34, label %37, label %35

35:                                               ; preds = %28
  %36 = load i64, ptr @eTimestampError, align 8, !tbaa !6
  call void (i64, ptr, ...) @ossl_raise(i64 noundef %36, ptr noundef @.str.77) #17
  unreachable

37:                                               ; preds = %28
  %38 = load ptr, ptr %3, align 8, !tbaa !51
  %39 = call i64 @asn1_to_der(ptr noundef %38, ptr noundef @i2d_TS_REQ)
  call void @llvm.lifetime.end.p0(i64 8, ptr %7) #16
  call void @llvm.lifetime.end.p0(i64 8, ptr %6) #16
  call void @llvm.lifetime.end.p0(i64 8, ptr %5) #16
  call void @llvm.lifetime.end.p0(i64 8, ptr %4) #16
  call void @llvm.lifetime.end.p0(i64 8, ptr %3) #16
  ret i64 %39
}