; Function Attrs: nounwind sspstrong uwtable
define internal i64 @ossl_ts_req_to_der(i64 noundef %0) #0 {
  %2 = alloca ptr, align 8
  %3 = alloca ptr, align 8
  call void @llvm.lifetime.start.p0(i64 8, ptr nonnull %3) #7
  %4 = tail call ptr @rb_check_typeddata(i64 noundef %0, ptr noundef nonnull @ossl_ts_req_type) #7
  %.not = icmp eq ptr %4, null
  br i1 %.not, label %5, label %7

5:                                                ; preds = %1
  %6 = load i64, ptr @rb_eRuntimeError, align 8, !tbaa !6
  tail call void (i64, ptr, ...) @ossl_raise(i64 noundef %6, ptr noundef nonnull @.str.57) #8
  unreachable

7:                                                ; preds = %1
  %8 = tail call ptr @TS_REQ_get_msg_imprint(ptr noundef nonnull %4) #7
  %9 = tail call ptr @TS_MSG_IMPRINT_get_algo(ptr noundef %8) #7
  call void @X509_ALGOR_get0(ptr noundef nonnull %3, ptr noundef null, ptr noundef null, ptr noundef %9) #7
  %10 = load ptr, ptr %3, align 8, !tbaa !50
  %11 = call i32 @OBJ_obj2nid(ptr noundef %10) #7
  %12 = icmp eq i32 %11, 0
  br i1 %12, label %13, label %15

13:                                               ; preds = %7
  %14 = load i64, ptr @eTimestampError, align 8, !tbaa !6
  call void (i64, ptr, ...) @ossl_raise(i64 noundef %14, ptr noundef nonnull @.str.76) #8
  unreachable

15:                                               ; preds = %7
  %16 = call ptr @TS_MSG_IMPRINT_get_msg(ptr noundef %8) #7
  %17 = load i32, ptr %16, align 8, !tbaa !54
  %.not7 = icmp eq i32 %17, 0
  br i1 %.not7, label %18, label %20

18:                                               ; preds = %15
  %19 = load i64, ptr @eTimestampError, align 8, !tbaa !6
  call void (i64, ptr, ...) @ossl_raise(i64 noundef %19, ptr noundef nonnull @.str.77) #8
  unreachable

20:                                               ; preds = %15
  call void @llvm.lifetime.start.p0(i64 8, ptr nonnull %2) #7
  %21 = call i32 @i2d_TS_REQ(ptr noundef nonnull %4, ptr noundef null) #7, !callees !30
  %22 = icmp slt i32 %21, 1
  br i1 %22, label %23, label %25

23:                                               ; preds = %20
  %24 = load i64, ptr @eTimestampError, align 8, !tbaa !6
  call void (i64, ptr, ...) @ossl_raise(i64 noundef %24, ptr noundef nonnull @.str.55) #8
  unreachable

25:                                               ; preds = %20
  %26 = zext nneg i32 %21 to i64
  %27 = call i64 @rb_str_new(ptr noundef null, i64 noundef %26) #7, !callees !31
  %28 = inttoptr i64 %27 to ptr
  %29 = load i64, ptr %28, align 8, !tbaa !32, !noalias !80
  %30 = and i64 %29, 8192
  %.not.i.i.i = icmp eq i64 %30, 0
  %31 = getelementptr inbounds nuw i8, ptr %28, i64 24
  br i1 %.not.i.i.i, label %RSTRING_PTR.exit.i, label %32

32:                                               ; preds = %25
  %.sroa.2.0.copyload.i.i = load ptr, ptr %31, align 8
  br label %RSTRING_PTR.exit.i

RSTRING_PTR.exit.i:                               ; preds = %32, %25
  %.sroa.2.0.i.i = phi ptr [ %.sroa.2.0.copyload.i.i, %32 ], [ %31, %25 ]
  store ptr %.sroa.2.0.i.i, ptr %2, align 8, !tbaa !36
  %33 = call i32 @i2d_TS_REQ(ptr noundef nonnull %4, ptr noundef nonnull %2) #7, !callees !30
  %34 = icmp slt i32 %33, 1
  br i1 %34, label %35, label %37

35:                                               ; preds = %RSTRING_PTR.exit.i
  %36 = load i64, ptr @eTimestampError, align 8, !tbaa !6
  call void (i64, ptr, ...) @ossl_raise(i64 noundef %36, ptr noundef nonnull @.str.55) #8
  unreachable

37:                                               ; preds = %RSTRING_PTR.exit.i
  %38 = load ptr, ptr %2, align 8, !tbaa !36
  %39 = load i64, ptr %28, align 8, !tbaa !32, !noalias !83
  %40 = and i64 %39, 8192
  %.not.i.i9.i = icmp eq i64 %40, 0
  br i1 %.not.i.i9.i, label %asn1_to_der.exit, label %41

41:                                               ; preds = %37
  %.sroa.2.0.copyload.i10.i = load ptr, ptr %31, align 8
  br label %asn1_to_der.exit

asn1_to_der.exit:                                 ; preds = %37, %41
  %.sroa.2.0.i11.i = phi ptr [ %.sroa.2.0.copyload.i10.i, %41 ], [ %31, %37 ]
  %42 = ptrtoint ptr %38 to i64
  %43 = ptrtoint ptr %.sroa.2.0.i11.i to i64
  %44 = sub i64 %42, %43
  call void @rb_str_set_len(i64 noundef %27, i64 noundef %44) #7
  call void @llvm.lifetime.end.p0(i64 8, ptr nonnull %2) #7
  call void @llvm.lifetime.end.p0(i64 8, ptr nonnull %3) #7
  ret i64 %27
}